; Listing generated by Microsoft (R) Optimizing Compiler Version 19.24.28117.0 

include listing.inc

INCLUDELIB MSVCRT
INCLUDELIB OLDNAMES

EXTRN	__imp_?staticMetaObject@QMainWindow@@2UQMetaObject@@B:BYTE
CONST	SEGMENT
?qt_meta_stringdata_MainWindow@@3Uqt_meta_stringdata_MainWindow_t@@B DD 0ffffffffH ; qt_meta_stringdata_MainWindow
	DD	0aH
	DD	00H
	ORG $+4
	DQ	0000000000000090H
	DD	0ffffffffH
	DD	0dH
	DD	00H
	ORG $+4
	DQ	0000000000000083H
	DD	0ffffffffH
	DD	00H
	DD	00H
	ORG $+4
	DQ	0000000000000079H
	DD	0ffffffffH
	DD	011H
	DD	00H
	ORG $+4
	DQ	0000000000000062H
	DD	0ffffffffH
	DD	011H
	DD	00H
	ORG $+4
	DQ	000000000000005cH
	DD	0ffffffffH
	DD	015H
	DD	00H
	ORG $+4
	DQ	0000000000000056H
	DB	04dH
	DB	061H
	DB	069H
	DB	06eH
	DB	057H
	DB	069H
	DB	06eH
	DB	064H
	DB	06fH
	DB	077H
	DB	00H
	DB	06fH
	DB	06eH
	DB	049H
	DB	074H
	DB	065H
	DB	06dH
	DB	043H
	DB	068H
	DB	061H
	DB	06eH
	DB	067H
	DB	065H
	DB	064H
	DB	00H
	DB	00H
	DB	06fH
	DB	06eH
	DB	04fH
	DB	070H
	DB	074H
	DB	069H
	DB	06dH
	DB	069H
	DB	073H
	DB	065H
	DB	043H
	DB	06cH
	DB	069H
	DB	063H
	DB	06bH
	DB	065H
	DB	064H
	DB	00H
	DB	06fH
	DB	06eH
	DB	053H
	DB	069H
	DB	06dH
	DB	075H
	DB	06cH
	DB	061H
	DB	074H
	DB	065H
	DB	043H
	DB	06cH
	DB	069H
	DB	063H
	DB	06bH
	DB	065H
	DB	064H
	DB	00H
	DB	06fH
	DB	06eH
	DB	053H
	DB	069H
	DB	06dH
	DB	075H
	DB	06cH
	DB	061H
	DB	074H
	DB	065H
	DB	04aH
	DB	053H
	DB	04fH
	DB	04eH
	DB	043H
	DB	06cH
	DB	069H
	DB	063H
	DB	06bH
	DB	065H
	DB	064H
	DB	00H
	ORG $+4
	ORG $+8
?qt_meta_data_MainWindow@@3QBIB DD 08H			; qt_meta_data_MainWindow
	DD	00H
	DD	00H
	DD	00H
	DD	04H
	DD	0eH
	DD	00H
	DD	00H
	DD	00H
	DD	00H
	DD	00H
	DD	00H
	DD	00H
	DD	00H
	DD	01H
	DD	00H
	DD	022H
	DD	02H
	DD	0aH
	DD	03H
	DD	00H
	DD	023H
	DD	02H
	DD	0aH
	DD	04H
	DD	00H
	DD	024H
	DD	02H
	DD	0aH
	DD	05H
	DD	00H
	DD	025H
	DD	02H
	DD	0aH
	DD	02bH
	DD	02bH
	DD	02bH
	DD	02bH
	DD	00H
CONST	ENDS
PUBLIC	?metaObject@MainWindow@@UEBAPEBUQMetaObject@@XZ	; MainWindow::metaObject
PUBLIC	?qt_metacast@MainWindow@@UEAAPEAXPEBD@Z		; MainWindow::qt_metacast
PUBLIC	?qt_metacall@MainWindow@@UEAAHW4Call@QMetaObject@@HPEAPEAX@Z ; MainWindow::qt_metacall
PUBLIC	?qt_static_metacall@MainWindow@@CAXPEAVQObject@@W4Call@QMetaObject@@HPEAPEAX@Z ; MainWindow::qt_static_metacall
PUBLIC	?staticMetaObject@MainWindow@@2UQMetaObject@@B	; MainWindow::staticMetaObject
EXTRN	__imp_?dynamicMetaObject@QObjectData@@QEBAPEAUQMetaObject@@XZ:PROC
EXTRN	__imp_?qt_metacast@QMainWindow@@UEAAPEAXPEBD@Z:PROC
EXTRN	__imp_?qt_metacall@QMainWindow@@UEAAHW4Call@QMetaObject@@HPEAPEAX@Z:PROC
EXTRN	?onItemChanged@MainWindow@@QEAAXXZ:PROC		; MainWindow::onItemChanged
EXTRN	?onOptimiseClicked@MainWindow@@QEAAXXZ:PROC	; MainWindow::onOptimiseClicked
EXTRN	?onSimulateClicked@MainWindow@@QEAAXXZ:PROC	; MainWindow::onSimulateClicked
EXTRN	?onSimulateJSONClicked@MainWindow@@QEAAXXZ:PROC	; MainWindow::onSimulateJSONClicked
;	COMDAT pdata
pdata	SEGMENT
$pdata$?qt_metacall@MainWindow@@UEAAHW4Call@QMetaObject@@HPEAPEAX@Z DD imagerel $LN20
	DD	imagerel $LN20+157
	DD	imagerel $unwind$?qt_metacall@MainWindow@@UEAAHW4Call@QMetaObject@@HPEAPEAX@Z
pdata	ENDS
CRT$XCU	SEGMENT
??staticMetaObject$initializer$@MainWindow@@2P6AXXZEA@@3P6AXXZEA DQ FLAT:??__E?staticMetaObject@MainWindow@@2UQMetaObject@@B@@YAXXZ ; ??staticMetaObject$initializer$@MainWindow@@2P6AXXZEA@@3P6AXXZEA
CRT$XCU	ENDS
_DATA	SEGMENT
?staticMetaObject@MainWindow@@2UQMetaObject@@B DB 8 DUP(00H) ; MainWindow::staticMetaObject
	DQ	FLAT:?qt_meta_stringdata_MainWindow@@3Uqt_meta_stringdata_MainWindow_t@@B
	DQ	FLAT:?qt_meta_data_MainWindow@@3QBIB
	DQ	FLAT:?qt_static_metacall@MainWindow@@CAXPEAVQObject@@W4Call@QMetaObject@@HPEAPEAX@Z
	DQ	0000000000000000H
	DQ	0000000000000000H
_DATA	ENDS
;	COMDAT xdata
xdata	SEGMENT
$unwind$?qt_metacall@MainWindow@@UEAAHW4Call@QMetaObject@@HPEAPEAX@Z DD 081501H
	DD	087415H
	DD	076415H
	DD	063415H
	DD	0e0113215H
xdata	ENDS
; Function compile flags: /Ogtpy
;	COMDAT ??__E?staticMetaObject@MainWindow@@2UQMetaObject@@B@@YAXXZ
text$di	SEGMENT
??__E?staticMetaObject@MainWindow@@2UQMetaObject@@B@@YAXXZ PROC ; `dynamic initializer for 'MainWindow::staticMetaObject'', COMDAT
; File C:\projects\POECraftingShenanigans\x64\Release\moc\src\moc_mainwindow.cpp
; Line 93
	mov	rax, QWORD PTR __imp_?staticMetaObject@QMainWindow@@2UQMetaObject@@B
	mov	QWORD PTR ?staticMetaObject@MainWindow@@2UQMetaObject@@B, rax
; Line 98
	ret	0
??__E?staticMetaObject@MainWindow@@2UQMetaObject@@B@@YAXXZ ENDP ; `dynamic initializer for 'MainWindow::staticMetaObject''
text$di	ENDS
; Function compile flags: /Ogtpy
;	COMDAT ?qt_static_metacall@MainWindow@@CAXPEAVQObject@@W4Call@QMetaObject@@HPEAPEAX@Z
_TEXT	SEGMENT
_o$ = 8
_c$ = 16
_id$ = 24
_a$ = 32
?qt_static_metacall@MainWindow@@CAXPEAVQObject@@W4Call@QMetaObject@@HPEAPEAX@Z PROC ; MainWindow::qt_static_metacall, COMDAT
; File C:\projects\POECraftingShenanigans\x64\Release\moc\src\moc_mainwindow.cpp
; Line 78
	test	edx, edx
	jne	SHORT $LN9@qt_static_
; Line 81
	test	r8d, r8d
	je	SHORT $LN5@qt_static_
	sub	r8d, 1
	je	SHORT $LN6@qt_static_
	sub	r8d, 1
	je	SHORT $LN7@qt_static_
	cmp	r8d, 1
	jne	SHORT $LN9@qt_static_
; Line 85
	jmp	?onSimulateJSONClicked@MainWindow@@QEAAXXZ ; MainWindow::onSimulateJSONClicked
$LN7@qt_static_:
; Line 84
	jmp	?onSimulateClicked@MainWindow@@QEAAXXZ	; MainWindow::onSimulateClicked
$LN6@qt_static_:
; Line 83
	jmp	?onOptimiseClicked@MainWindow@@QEAAXXZ	; MainWindow::onOptimiseClicked
$LN5@qt_static_:
; Line 82
	jmp	?onItemChanged@MainWindow@@QEAAXXZ	; MainWindow::onItemChanged
$LN9@qt_static_:
; Line 90
	ret	0
?qt_static_metacall@MainWindow@@CAXPEAVQObject@@W4Call@QMetaObject@@HPEAPEAX@Z ENDP ; MainWindow::qt_static_metacall
_TEXT	ENDS
; Function compile flags: /Ogtpy
;	COMDAT ?qt_metacall@MainWindow@@UEAAHW4Call@QMetaObject@@HPEAPEAX@Z
_TEXT	SEGMENT
this$ = 48
_c$ = 56
_id$ = 64
_a$ = 72
?qt_metacall@MainWindow@@UEAAHW4Call@QMetaObject@@HPEAPEAX@Z PROC ; MainWindow::qt_metacall, COMDAT
; File C:\projects\POECraftingShenanigans\x64\Release\moc\src\moc_mainwindow.cpp
; Line 116
$LN20:
	mov	QWORD PTR [rsp+8], rbx
	mov	QWORD PTR [rsp+16], rsi
	mov	QWORD PTR [rsp+24], rdi
	push	r14
	sub	rsp, 32					; 00000020H
	mov	r14, r9
	mov	esi, edx
	mov	rdi, rcx
; Line 117
	call	QWORD PTR __imp_?qt_metacall@QMainWindow@@UEAAHW4Call@QMetaObject@@HPEAPEAX@Z
	mov	ebx, eax
; Line 118
	test	eax, eax
	js	SHORT $LN1@qt_metacal
; Line 120
	test	esi, esi
	jne	SHORT $LN3@qt_metacal
; Line 121
	cmp	eax, 4
	jge	SHORT $LN7@qt_metacal
; Line 81
	mov	ecx, eax
	test	eax, eax
	je	SHORT $LN13@qt_metacal
	sub	ecx, 1
	je	SHORT $LN14@qt_metacal
	sub	ecx, 1
	je	SHORT $LN15@qt_metacal
	cmp	ecx, 1
	jne	SHORT $LN7@qt_metacal
; Line 85
	mov	rcx, rdi
	call	?onSimulateJSONClicked@MainWindow@@QEAAXXZ ; MainWindow::onSimulateJSONClicked
	jmp	SHORT $LN7@qt_metacal
$LN15@qt_metacal:
; Line 84
	mov	rcx, rdi
	call	?onSimulateClicked@MainWindow@@QEAAXXZ	; MainWindow::onSimulateClicked
	jmp	SHORT $LN7@qt_metacal
$LN14@qt_metacal:
; Line 83
	mov	rcx, rdi
	call	?onOptimiseClicked@MainWindow@@QEAAXXZ	; MainWindow::onOptimiseClicked
	jmp	SHORT $LN7@qt_metacal
$LN13@qt_metacal:
; Line 82
	mov	rcx, rdi
	call	?onItemChanged@MainWindow@@QEAAXXZ	; MainWindow::onItemChanged
; Line 123
	jmp	SHORT $LN7@qt_metacal
$LN3@qt_metacal:
; Line 124
	cmp	esi, 12
	jne	SHORT $LN6@qt_metacal
; Line 125
	cmp	ebx, 4
	jge	SHORT $LN7@qt_metacal
; Line 126
	mov	rax, QWORD PTR [r14]
	mov	DWORD PTR [rax], -1
$LN7@qt_metacal:
; Line 129
	sub	ebx, 4
$LN6@qt_metacal:
	mov	eax, ebx
$LN1@qt_metacal:
; Line 130
	mov	rbx, QWORD PTR [rsp+48]
	mov	rsi, QWORD PTR [rsp+56]
	mov	rdi, QWORD PTR [rsp+64]
	add	rsp, 32					; 00000020H
	pop	r14
	ret	0
?qt_metacall@MainWindow@@UEAAHW4Call@QMetaObject@@HPEAPEAX@Z ENDP ; MainWindow::qt_metacall
_TEXT	ENDS
; Function compile flags: /Ogtpy
;	COMDAT ?qt_metacast@MainWindow@@UEAAPEAXPEBD@Z
_TEXT	SEGMENT
this$ = 8
_clname$ = 16
?qt_metacast@MainWindow@@UEAAPEAXPEBD@Z PROC		; MainWindow::qt_metacast, COMDAT
; File C:\projects\POECraftingShenanigans\x64\Release\moc\src\moc_mainwindow.cpp
; Line 108
	mov	r9, rdx
	mov	r10, rcx
; Line 109
	test	rdx, rdx
	jne	SHORT $LN2@qt_metacas
	xor	eax, eax
; Line 113
	ret	0
$LN2@qt_metacas:
; Line 110
	lea	r8, OFFSET FLAT:?qt_meta_stringdata_MainWindow@@3Uqt_meta_stringdata_MainWindow_t@@B+144
	mov	rax, r9
	sub	r8, r9
	npad	5
$LL5@qt_metacas:
	movzx	edx, BYTE PTR [rax]
	movzx	ecx, BYTE PTR [rax+r8]
	sub	edx, ecx
	jne	SHORT $LN6@qt_metacas
	inc	rax
	test	ecx, ecx
	jne	SHORT $LL5@qt_metacas
$LN6@qt_metacas:
	test	edx, edx
	jne	SHORT $LN3@qt_metacas
; Line 111
	mov	rax, r10
; Line 113
	ret	0
$LN3@qt_metacas:
; Line 112
	mov	rdx, r9
	mov	rcx, r10
	rex_jmp	QWORD PTR __imp_?qt_metacast@QMainWindow@@UEAAPEAXPEBD@Z
?qt_metacast@MainWindow@@UEAAPEAXPEBD@Z ENDP		; MainWindow::qt_metacast
_TEXT	ENDS
; Function compile flags: /Ogtpy
;	COMDAT ?metaObject@MainWindow@@UEBAPEBUQMetaObject@@XZ
_TEXT	SEGMENT
this$ = 8
?metaObject@MainWindow@@UEBAPEBUQMetaObject@@XZ PROC	; MainWindow::metaObject, COMDAT
; File C:\projects\POECraftingShenanigans\x64\Release\moc\src\moc_mainwindow.cpp
; Line 104
	mov	rcx, QWORD PTR [rcx+8]
	cmp	QWORD PTR [rcx+40], 0
	je	SHORT $LN3@metaObject
	rex_jmp	QWORD PTR __imp_?dynamicMetaObject@QObjectData@@QEBAPEAUQMetaObject@@XZ
$LN3@metaObject:
	lea	rax, OFFSET FLAT:?staticMetaObject@MainWindow@@2UQMetaObject@@B ; MainWindow::staticMetaObject
; Line 105
	ret	0
?metaObject@MainWindow@@UEBAPEBUQMetaObject@@XZ ENDP	; MainWindow::metaObject
_TEXT	ENDS
END
